target datalayout = "e-m:e-p270:32:32-p271:32:32-p272:64:64-i64:64-i128:128-f80:128-n8:16:32:64-S128"
target triple = "x86_64-pc-linux-gnu"

%struct.AVCodecContext = type { ptr, i32, i32, ptr, i32, i32, ptr, ptr, ptr, i64, i32, i32, ptr, i32, %struct.AVRational, %struct.AVRational, %struct.AVRational, i32, i32, i32, i32, i32, %struct.AVRational, i32, i32, i32, i32, i32, i32, i32, i32, i32, i32, i32, ptr, ptr, i32, float, float, float, float, float, float, float, float, float, i32, i32, i32, i32, i32, i32, i32, i32, i32, i32, i32, i32, ptr, ptr, ptr, i32, i32, i32, i32, i32, i32, i32, i32, i32, i32, %struct.AVChannelLayout, i32, i32, i32, i32, i32, i32, i32, i32, ptr, i32, i32, i32, float, float, i32, i32, i32, i32, i32, ptr, i64, i64, float, float, i32, i32, ptr, ptr, i32, i32, i32, i32, i32, ptr, ptr, ptr, ptr, i32, i32, [8 x i64], i32, i32, i32, i32, i32, i32, i32, ptr, ptr, i32, i32, i32, i32, i32, i32, i32, i32, i32, i32, ptr, ptr, i32, i32, ptr, ptr, ptr, ptr, i32, i32, i64, i32, i32, i64, ptr, i64, ptr, i32, ptr, i32 }
%struct.AVRational = type { i32, i32 }
%struct.AVChannelLayout = type { i32, i32, %union.anon.0, ptr }
%union.anon.0 = type { i64 }
%struct.TAKDecContext = type { ptr, %struct.AudioDSPContext, %struct.TAKDSPContext, %struct.TAKStreamInfo, %struct.BitstreamContextLE, i32, i32, ptr, i32, [16 x ptr], [16 x i8], [16 x i8], [256 x i16], i32, [8 x i16], i32, i8, [16 x %struct.MCDParam], [128 x i8], [15 x i8], [256 x i16], [544 x i16] }
%struct.AudioDSPContext = type { ptr, ptr, ptr }
%struct.TAKDSPContext = type { ptr, ptr, ptr, ptr }
%struct.TAKStreamInfo = type { i32, i32, i32, i32, i32, i32, i32, i32, i32, i64, i64 }
%struct.BitstreamContextLE = type { i64, ptr, ptr, ptr, i32, i32 }
%struct.MCDParam = type { i8, i8, i8, i8 }

; Function Attrs: nounwind uwtable
define internal i32 @update_thread_context(ptr noundef %0, ptr noundef %1) #0 {
  %3 = alloca i32, align 4
  %4 = alloca ptr, align 8
  %5 = alloca ptr, align 8
  %6 = alloca ptr, align 8
  %7 = alloca ptr, align 8
  %8 = alloca i32, align 4
  store ptr %0, ptr %4, align 8, !tbaa !4
  store ptr %1, ptr %5, align 8, !tbaa !4
  call void @llvm.lifetime.start.p0(i64 8, ptr %6) #9
  %9 = load ptr, ptr %5, align 8, !tbaa !4
  %10 = getelementptr inbounds nuw %struct.AVCodecContext, ptr %9, i32 0, i32 6
  %11 = load ptr, ptr %10, align 8, !tbaa !9
  store ptr %11, ptr %6, align 8, !tbaa !29
  call void @llvm.lifetime.start.p0(i64 8, ptr %7) #9
  %12 = load ptr, ptr %4, align 8, !tbaa !4
  %13 = getelementptr inbounds nuw %struct.AVCodecContext, ptr %12, i32 0, i32 6
  %14 = load ptr, ptr %13, align 8, !tbaa !9
  store ptr %14, ptr %7, align 8, !tbaa !29
  %15 = load ptr, ptr %4, align 8, !tbaa !4
  %16 = load ptr, ptr %5, align 8, !tbaa !4
  %17 = icmp eq ptr %15, %16
  br i1 %17, label %18, label %19

18:                                               ; preds = %2
  store i32 0, ptr %3, align 4
  store i32 1, ptr %8, align 4
  br label %24

19:                                               ; preds = %2
  %20 = load ptr, ptr %7, align 8, !tbaa !29
  %21 = getelementptr inbounds nuw %struct.TAKDecContext, ptr %20, i32 0, i32 3
  %22 = load ptr, ptr %6, align 8, !tbaa !29
  %23 = getelementptr inbounds nuw %struct.TAKDecContext, ptr %22, i32 0, i32 3
  call void @llvm.memcpy.p0.p0.i64(ptr align 16 %21, ptr align 16 %23, i64 56, i1 false)
  store i32 0, ptr %3, align 4
  store i32 1, ptr %8, align 4
  br label %24

24:                                               ; preds = %19, %18
  call void @llvm.lifetime.end.p0(i64 8, ptr %7) #9
  call void @llvm.lifetime.end.p0(i64 8, ptr %6) #9
  %25 = load i32, ptr %3, align 4
  ret i32 %25
}