; Function Attrs: mustprogress nofree norecurse nosync nounwind willreturn memory(readwrite, inaccessiblemem: none) uwtable
define internal noundef i32 @update_thread_context(ptr noundef readonly captures(address) %0, ptr noundef readonly captures(address) %1) #0 {
  %3 = icmp eq ptr %0, %1
  br i1 %3, label %11, label %4

4:                                                ; preds = %2
  %5 = getelementptr inbounds nuw i8, ptr %0, i64 32
  %6 = load ptr, ptr %5, align 8, !tbaa !4
  %7 = getelementptr inbounds nuw i8, ptr %1, i64 32
  %8 = load ptr, ptr %7, align 8, !tbaa !4
  %9 = getelementptr inbounds nuw i8, ptr %6, i64 64
  %10 = getelementptr inbounds nuw i8, ptr %8, i64 64
  tail call void @llvm.memcpy.p0.p0.i64(ptr noundef nonnull align 16 dereferenceable(56) %9, ptr noundef nonnull align 16 dereferenceable(56) %10, i64 56, i1 false)
  br label %11

11:                                               ; preds = %2, %4
  ret i32 0
}